; Function Attrs: nounwind uwtable
define internal fastcc void @update_grouptailpos(ptr noundef captures(none) %0) unnamed_addr #0 {
  %2 = alloca i8, align 1
  %3 = getelementptr inbounds nuw i8, ptr %0, i64 582
  %4 = load i8, ptr %3, align 2, !range !4, !noundef !5
  %5 = trunc nuw i8 %4 to i1
  br i1 %5, label %73, label %6

6:                                                ; preds = %1
  %7 = getelementptr inbounds nuw i8, ptr %0, i64 8
  %8 = load ptr, ptr %7, align 8
  %9 = getelementptr inbounds nuw i8, ptr %0, i64 128
  %10 = load ptr, ptr %9, align 8
  %11 = getelementptr inbounds nuw i8, ptr %10, i64 32
  %12 = load ptr, ptr %11, align 8
  %13 = load ptr, ptr @CurrentMemoryContext, align 8
  store ptr %12, ptr @CurrentMemoryContext, align 8
  %14 = getelementptr inbounds nuw i8, ptr %8, i64 136
  %15 = load i32, ptr %14, align 8
  %16 = icmp eq i32 %15, 0
  br i1 %16, label %17, label %21

17:                                               ; preds = %6
  tail call fastcc void @spool_tuples(ptr noundef nonnull %0, i64 noundef -1)
  %18 = getelementptr inbounds nuw i8, ptr %0, i64 296
  %19 = load i64, ptr %18, align 8
  %20 = getelementptr inbounds nuw i8, ptr %0, i64 536
  store i64 %19, ptr %20, align 8
  br label %.sink.split

21:                                               ; preds = %6
  %22 = getelementptr inbounds nuw i8, ptr %0, i64 272
  %23 = load ptr, ptr %22, align 8
  %24 = getelementptr inbounds nuw i8, ptr %0, i64 292
  %25 = load i32, ptr %24, align 4
  tail call void @tuplestore_select_read_pointer(ptr noundef %23, i32 noundef %25) #9
  %26 = getelementptr inbounds nuw i8, ptr %0, i64 536
  %27 = load i64, ptr %26, align 8
  %28 = add i64 %27, 1
  store i64 %28, ptr %26, align 8
  tail call fastcc void @spool_tuples(ptr noundef nonnull %0, i64 noundef %28)
  %29 = load ptr, ptr %22, align 8
  %30 = getelementptr inbounds nuw i8, ptr %0, i64 624
  %31 = load ptr, ptr %30, align 8
  %32 = tail call zeroext i1 @tuplestore_gettupleslot(ptr noundef %29, i1 noundef zeroext true, i1 noundef zeroext true, ptr noundef %31) #9
  br i1 %32, label %.lr.ph, label %are_peers.exit._crit_edge

.lr.ph:                                           ; preds = %21
  %33 = getelementptr inbounds nuw i8, ptr %0, i64 304
  %34 = getelementptr inbounds nuw i8, ptr %0, i64 216
  %35 = getelementptr inbounds nuw i8, ptr %0, i64 568
  %36 = getelementptr inbounds nuw i8, ptr %0, i64 264
  br label %37

37:                                               ; preds = %.lr.ph, %are_peers.exit.thread
  %38 = load i64, ptr %26, align 8
  %39 = load i64, ptr %33, align 8
  %40 = icmp sgt i64 %38, %39
  br i1 %40, label %41, label %are_peers.exit.thread

41:                                               ; preds = %37
  %42 = load ptr, ptr %7, align 8
  %43 = getelementptr inbounds nuw i8, ptr %42, i64 136
  %44 = load i32, ptr %43, align 8
  %45 = icmp eq i32 %44, 0
  br i1 %45, label %are_peers.exit.thread, label %46

46:                                               ; preds = %41
  %47 = load ptr, ptr %34, align 8
  %48 = load ptr, ptr %30, align 8
  %49 = load ptr, ptr %35, align 8
  %50 = getelementptr inbounds nuw i8, ptr %49, i64 24
  store ptr %48, ptr %50, align 8
  %51 = getelementptr inbounds nuw i8, ptr %49, i64 16
  store ptr %47, ptr %51, align 8
  %52 = load ptr, ptr %36, align 8
  call void @llvm.lifetime.start.p0(i64 1, ptr nonnull %2) #9
  %53 = icmp eq ptr %52, null
  br i1 %53, label %are_peers.exit.thread25, label %are_peers.exit

are_peers.exit.thread25:                          ; preds = %46
  call void @llvm.lifetime.end.p0(i64 1, ptr nonnull %2) #9
  %54 = getelementptr inbounds nuw i8, ptr %49, i64 40
  %55 = load ptr, ptr %54, align 8
  call void @MemoryContextReset(ptr noundef %55) #9
  br label %are_peers.exit.thread

are_peers.exit:                                   ; preds = %46
  %56 = getelementptr inbounds nuw i8, ptr %49, i64 40
  %57 = load ptr, ptr %56, align 8
  %58 = load ptr, ptr @CurrentMemoryContext, align 8
  store ptr %57, ptr @CurrentMemoryContext, align 8
  %59 = getelementptr inbounds nuw i8, ptr %52, i64 32
  %60 = load ptr, ptr %59, align 8
  %61 = call i64 %60(ptr noundef nonnull %52, ptr noundef nonnull %49, ptr noundef nonnull %2) #9
  store ptr %58, ptr @CurrentMemoryContext, align 8
  %.not = icmp eq i64 %61, 0
  call void @llvm.lifetime.end.p0(i64 1, ptr nonnull %2) #9
  %62 = load ptr, ptr %56, align 8
  call void @MemoryContextReset(ptr noundef %62) #9
  br i1 %.not, label %are_peers.exit._crit_edge, label %are_peers.exit.thread

are_peers.exit.thread:                            ; preds = %41, %are_peers.exit.thread25, %are_peers.exit, %37
  %63 = load i64, ptr %26, align 8
  %64 = add i64 %63, 1
  store i64 %64, ptr %26, align 8
  call fastcc void @spool_tuples(ptr noundef nonnull %0, i64 noundef %64)
  %65 = load ptr, ptr %22, align 8
  %66 = load ptr, ptr %30, align 8
  %67 = call zeroext i1 @tuplestore_gettupleslot(ptr noundef %65, i1 noundef zeroext true, i1 noundef zeroext true, ptr noundef %66) #9
  br i1 %67, label %37, label %are_peers.exit._crit_edge

are_peers.exit._crit_edge:                        ; preds = %are_peers.exit.thread, %are_peers.exit, %21
  %68 = load ptr, ptr %30, align 8
  %69 = getelementptr inbounds nuw i8, ptr %68, i64 8
  %70 = load ptr, ptr %69, align 8
  %71 = getelementptr inbounds nuw i8, ptr %70, i64 24
  %72 = load ptr, ptr %71, align 8
  call void %72(ptr noundef %68) #9
  br label %.sink.split

.sink.split:                                      ; preds = %17, %are_peers.exit._crit_edge
  store i8 1, ptr %3, align 2
  store ptr %13, ptr @CurrentMemoryContext, align 8
  br label %73

73:                                               ; preds = %.sink.split, %1
  ret void
}